(dp1
S'files'
p2
(dp3
S'users_services'
p4
(dp5
S'index'
p6
(dp7
S'html_filename'
p8
S'users_services.html'
p9
sS'name'
p10
S'users.services'
p11
sS'nums'
p12
ccopy_reg
_reconstructor
p13
(ccoverage.results
Numbers
p14
c__builtin__
object
p15
NtRp16
(dp17
S'n_files'
p18
I1
sS'n_branches'
p19
I14
sS'n_statements'
p20
I43
sS'n_excluded'
p21
I0
sS'n_partial_branches'
p22
I0
sS'n_missing'
p23
I0
sS'n_missing_branches'
p24
I0
sbssS'hash'
p25
S'\xb3J\xfaF7\x13\xac\x0c\x0b\xaa(\xd3+\xb83\xcf'
p26
ssS'users_authentication'
p27
(dp28
g6
(dp29
S'html_filename'
p30
S'users_authentication.html'
p31
sS'name'
p32
S'users.authentication'
p33
sS'nums'
p34
g13
(g14
g15
NtRp35
(dp36
g18
I1
sg19
I30
sg20
I87
sg21
I0
sg22
I5
sg23
I10
sg24
I11
sbssg25
S'\xfa\xf0VG4\xcc\x80\x89\xc3f\xb3\x9b\xaa\xe9.\x7f'
p37
ssS'users_urls'
p38
(dp39
g6
(dp40
g8
S'users_urls.html'
p41
sg10
S'users.urls'
p42
sg12
g13
(g14
g15
NtRp43
(dp44
g18
I1
sg19
I0
sg20
I4
sg21
I0
sg22
I0
sg23
I0
sg24
I0
sbssg25
S'V\xd5a"\x03f\x92N\xf7\t$\x06\xeb\xd8M\x07'
p45
ssS'users_models'
p46
(dp47
g6
(dp48
g8
S'users_models.html'
p49
sg10
S'users.models'
p50
sg12
g13
(g14
g15
NtRp51
(dp52
g18
I1
sg19
I0
sg20
I0
sg21
I0
sg22
I0
sg23
I0
sg24
I0
sbssg25
S'\x98 \x067.\x85\xed_\xac\xf4\xaa\x81k&i\xc5'
p53
ssS'users_views'
p54
(dp55
g6
(dp56
g8
S'users_views.html'
p57
sg10
S'users.views'
p58
sg12
g13
(g14
g15
NtRp59
(dp60
g18
I1
sg19
I0
sg20
I27
sg21
I0
sg22
I0
sg23
I0
sg24
I0
sbssg25
S'\x96\x10\xfd?H\xd99\xde\t*\r\x19$%\xe8+'
p61
ssS'commons_exception_mapper_errors_exception_translator'
p62
(dp63
g6
(dp64
S'html_filename'
p65
S'commons_exception_mapper_errors_exception_translator.html'
p66
sS'name'
p67
S'commons.exception_mapper.errors.exception_translator'
p68
sS'nums'
p69
g13
(g14
g15
NtRp70
(dp71
g18
I1
sg19
I0
sg20
I2
sg21
I0
sg22
I0
sg23
I0
sg24
I0
sbssg25
S'#\x8egk\xb8t\xde\xff\xfdT\x02\xbcUI^D'
p72
ssS'bindings_serializers'
p73
(dp74
g6
(dp75
g30
S'bindings_serializers.html'
p76
sg32
S'bindings.serializers'
p77
sg34
g13
(g14
g15
NtRp78
(dp79
g18
I1
sg19
I30
sg20
I104
sg21
I0
sg22
I1
sg23
I3
sg24
I1
sbssg25
S'\x9d\xecDU\x17\xa5\xfd\xaf\x9d\xb3\xa9\x0e}N;R'
p80
ssS'commons_exception_mapper'
p81
(dp82
g6
(dp83
g8
S'commons_exception_mapper.html'
p84
sg10
S'commons.exception_mapper'
p85
sg12
g13
(g14
g15
NtRp86
(dp87
g18
I1
sg19
I0
sg20
I0
sg21
I0
sg22
I0
sg23
I0
sg24
I0
sbssg25
S'\x98 \x067.\x85\xed_\xac\xf4\xaa\x81k&i\xc5'
p88
ssS'bindings'
p89
(dp90
g6
(dp91
g8
S'bindings.html'
p92
sg10
g89
sg12
g13
(g14
g15
NtRp93
(dp94
g18
I1
sg19
I0
sg20
I0
sg21
I0
sg22
I0
sg23
I0
sg24
I0
sbssg25
S'\xe5P\x11)^\xf4>1D.\x0e\x0b\xa1\xf8[+'
p95
ssS'classes_services'
p96
(dp97
g6
(dp98
S'html_filename'
p99
S'classes_services.html'
p100
sS'name'
p101
S'classes.services'
p102
sS'nums'
p103
g13
(g14
g15
NtRp104
(dp105
g18
I1
sg19
I28
sg20
I85
sg21
I0
sg22
I0
sg23
I0
sg24
I0
sbssg25
S"\x1a\xa9E\xb8:\xb4\x85\xd2\xda>#=Z\xe2'\x81"
p106
ssS'commons_services'
p107
(dp108
g6
(dp109
S'html_filename'
p110
S'commons_services.html'
p111
sS'name'
p112
S'commons.services'
p113
sS'nums'
p114
g13
(g14
g15
NtRp115
(dp116
g18
I1
sg19
I8
sg20
I29
sg21
I0
sg22
I2
sg23
I0
sg24
I2
sbssg25
S'\x95\xab=L\xfa\x03\xfd+\x95Ja\xf26\xb5\x12Q'
p117
ssS'commons_exception_mapper_exception_mapper'
p118
(dp119
g6
(dp120
S'html_filename'
p121
S'commons_exception_mapper_exception_mapper.html'
p122
sS'name'
p123
S'commons.exception_mapper.exception_mapper'
p124
sS'nums'
p125
g13
(g14
g15
NtRp126
(dp127
g18
I1
sg19
I18
sg20
I42
sg21
I0
sg22
I4
sg23
I4
sg24
I4
sbssg25
S'\x11\x86\x96y"\x88m\x9c\xfcK/e\x00\xc3\xfd<'
p128
ssS'users_daos'
p129
(dp130
g6
(dp131
g8
S'users_daos.html'
p132
sg10
S'users.daos'
p133
sg12
g13
(g14
g15
NtRp134
(dp135
g18
I1
sg19
I2
sg20
I16
sg21
I0
sg22
I0
sg23
I0
sg24
I0
sbssg25
S'n\x14{\xf2\xd07\xff%\xd4\x85\x12\x01\xcf;\x12K'
p136
ssS'commons_serializers'
p137
(dp138
g6
(dp139
g121
S'commons_serializers.html'
p140
sg123
S'commons.serializers'
p141
sg125
g13
(g14
g15
NtRp142
(dp143
g18
I1
sg19
I81
sg20
I192
sg21
I0
sg22
I8
sg23
I5
sg24
I10
sbssg25
S'\xdd }\x93\xd6_\xbd\xfe\xbd\xdc\xc2MXG\xd8\x14'
p144
ssS'classes'
p145
(dp146
g6
(dp147
g8
S'classes.html'
p148
sg10
g145
sg12
g13
(g14
g15
NtRp149
(dp150
g18
I1
sg19
I0
sg20
I0
sg21
I0
sg22
I0
sg23
I0
sg24
I0
sbssg25
S'\xe5P\x11)^\xf4>1D.\x0e\x0b\xa1\xf8[+'
p151
ssS'commons_decorators'
p152
(dp153
g6
(dp154
g121
S'commons_decorators.html'
p155
sg123
S'commons.decorators'
p156
sg125
g13
(g14
g15
NtRp157
(dp158
g18
I1
sg19
I8
sg20
I42
sg21
I0
sg22
I0
sg23
I0
sg24
I0
sbssg25
S'1\x82>p\xa8\x11$b12>}\xc7t@\xcc'
p159
ssS'commons_views'
p160
(dp161
g6
(dp162
g121
S'commons_views.html'
p163
sg123
S'commons.views'
p164
sg125
g13
(g14
g15
NtRp165
(dp166
g18
I1
sg19
I23
sg20
I85
sg21
I0
sg22
I3
sg23
I5
sg24
I3
sbssg25
S')\xa7\x84\xcd+t\xfb\xcc\x1b\xbb\xd8U\xa8`\xb0\x10'
p167
ssS'bindings_services'
p168
(dp169
g6
(dp170
g30
S'bindings_services.html'
p171
sg32
S'bindings.services'
p172
sg34
g13
(g14
g15
NtRp173
(dp174
g18
I1
sg19
I48
sg20
I108
sg21
I0
sg22
I0
sg23
I0
sg24
I0
sbssg25
S'"\xa9v\\e\x1bz\xfc\xf0[\x7fs\xa9s<\xc7'
p175
ssS'commons_metaclasses'
p176
(dp177
g6
(dp178
g8
S'commons_metaclasses.html'
p179
sg10
S'commons.metaclasses'
p180
sg12
g13
(g14
g15
NtRp181
(dp182
g18
I1
sg19
I6
sg20
I13
sg21
I0
sg22
I0
sg23
I0
sg24
I0
sbssg25
S'\xba\xc9s[\xbf=\x8d\x19\xb0^f\xc9\x95\x13\x08\xaf'
p183
ssS'bindings_exceptions'
p184
(dp185
g6
(dp186
g30
S'bindings_exceptions.html'
p187
sg32
S'bindings.exceptions'
p188
sg34
g13
(g14
g15
NtRp189
(dp190
g18
I1
sg19
I0
sg20
I15
sg21
I0
sg22
I0
sg23
I0
sg24
I0
sbssg25
S'\xd2\xecw\xc1]\xb8\xbb\xf9e\xd7\xd2+=\x03\xd1\x14'
p191
ssS'classes_serializers'
p192
(dp193
g6
(dp194
g110
S'classes_serializers.html'
p195
sg112
S'classes.serializers'
p196
sg114
g13
(g14
g15
NtRp197
(dp198
g18
I1
sg19
I26
sg20
I108
sg21
I0
sg22
I2
sg23
I4
sg24
I2
sbssg25
S'\xe9\xc6\xa2`\xfe\xaf0\xd5\xf7(AV\x0f\xcd\xaa.'
p199
ssS'classes_views'
p200
(dp201
g6
(dp202
g99
S'classes_views.html'
p203
sg101
S'classes.views'
p204
sg103
g13
(g14
g15
NtRp205
(dp206
g18
I1
sg19
I2
sg20
I57
sg21
I0
sg22
I0
sg23
I0
sg24
I0
sbssg25
S'\x1f\x89\xc0x\x1f\x8d\x84.\x19\xd4\xda\xa2aj\xd1k'
p207
ssS'commons_parsers'
p208
(dp209
g6
(dp210
g8
S'commons_parsers.html'
p211
sg10
S'commons.parsers'
p212
sg12
g13
(g14
g15
NtRp213
(dp214
g18
I1
sg19
I6
sg20
I25
sg21
I0
sg22
I2
sg23
I2
sg24
I2
sbssg25
S'\xa6x\x19\x98\x89\xd3\xfe\xd4\x1d\xcb7\xd9\xd5\xc9)\x8b'
p215
ssS'commons_json_schema_validator_schema_reader'
p216
(dp217
g6
(dp218
g121
S'commons_json_schema_validator_schema_reader.html'
p219
sg123
S'commons.json_schema_validator.schema_reader'
p220
sg125
g13
(g14
g15
NtRp221
(dp222
g18
I1
sg19
I6
sg20
I62
sg21
I0
sg22
I1
sg23
I0
sg24
I1
sbssg25
S'wS\x80\xd2\x8b\x8c\xf0\x90{\x8cv9\x1b]\x13a'
p223
ssS'commons_utils'
p224
(dp225
g6
(dp226
g121
S'commons_utils.html'
p227
sg123
S'commons.utils'
p228
sg125
g13
(g14
g15
NtRp229
(dp230
g18
I1
sg19
I24
sg20
I44
sg21
I0
sg22
I0
sg23
I2
sg24
I0
sbssg25
S'\xd0\x1d\x05\x0f}\x12\xe9E\x15\xcd\r\xe9d[{\xfe'
p231
ssS'users'
p232
(dp233
g6
(dp234
g8
S'users.html'
p235
sg10
g232
sg12
g13
(g14
g15
NtRp236
(dp237
g18
I1
sg19
I0
sg20
I0
sg21
I0
sg22
I0
sg23
I0
sg24
I0
sbssg25
S'\xe5P\x11)^\xf4>1D.\x0e\x0b\xa1\xf8[+'
p238
ssS'commons_middleware'
p239
(dp240
g6
(dp241
S'html_filename'
p242
S'commons_middleware.html'
p243
sS'name'
p244
S'commons.middleware'
p245
sS'nums'
p246
g13
(g14
g15
NtRp247
(dp248
g18
I1
sg19
I20
sg20
I67
sg21
I0
sg22
I3
sg23
I1
sg24
I3
sbssg25
S'\x89I\x88\xd9?,\xb2\xd7^\x0fv\xff\xd2\xc0\x94\xa7'
p249
ssS'classes_urls'
p250
(dp251
g6
(dp252
g8
S'classes_urls.html'
p253
sg10
S'classes.urls'
p254
sg12
g13
(g14
g15
NtRp255
(dp256
g18
I1
sg19
I0
sg20
I4
sg21
I0
sg22
I0
sg23
I0
sg24
I0
sbssg25
S'\x14=\x02\xbf\x81\xc0:\x9f\x8c\xa4\xc9\xe8( \xda\x1b'
p257
ssS'users_serializers'
p258
(dp259
g6
(dp260
g8
S'users_serializers.html'
p261
sg10
S'users.serializers'
p262
sg12
g13
(g14
g15
NtRp263
(dp264
g18
I1
sg19
I10
sg20
I39
sg21
I0
sg22
I1
sg23
I1
sg24
I1
sbssg25
S'\x05\xd8%\xb8\x07\xf7\xda"\xcc\x93lp-\x8fP\x0c'
p265
ssS'commons_fields'
p266
(dp267
g6
(dp268
S'html_filename'
p269
S'commons_fields.html'
p270
sS'name'
p271
S'commons.fields'
p272
sS'nums'
p273
g13
(g14
g15
NtRp274
(dp275
g18
I1
sg19
I30
sg20
I71
sg21
I0
sg22
I3
sg23
I2
sg24
I3
sbssg25
S'\xb5\x07w\nf8\x8f?\xb3v\xa1\x89@\x89\xa0 '
p276
ssS'commons_json_schema_validator'
p277
(dp278
g6
(dp279
g8
S'commons_json_schema_validator.html'
p280
sg10
S'commons.json_schema_validator'
p281
sg12
g13
(g14
g15
NtRp282
(dp283
g18
I1
sg19
I0
sg20
I0
sg21
I0
sg22
I0
sg23
I0
sg24
I0
sbssg25
S'\xbf/\x83L\xc9/\xc0\x9a\xf0p\xa8h\xff\x10T5'
p284
ssS'classes_models'
p285
(dp286
g6
(dp287
g8
S'classes_models.html'
p288
sg10
S'classes.models'
p289
sg12
g13
(g14
g15
NtRp290
(dp291
g18
I1
sg19
I0
sg20
I0
sg21
I0
sg22
I0
sg23
I0
sg24
I0
sbssg25
S'\x98 \x067.\x85\xed_\xac\xf4\xaa\x81k&i\xc5'
p292
ssS'bindings_models'
p293
(dp294
g6
(dp295
g8
S'bindings_models.html'
p296
sg10
S'bindings.models'
p297
sg12
g13
(g14
g15
NtRp298
(dp299
g18
I1
sg19
I0
sg20
I0
sg21
I0
sg22
I0
sg23
I0
sg24
I0
sbssg25
S'\x98 \x067.\x85\xed_\xac\xf4\xaa\x81k&i\xc5'
p300
ssS'commons_daos'
p301
(dp302
g6
(dp303
g121
S'commons_daos.html'
p304
sg123
S'commons.daos'
p305
sg125
g13
(g14
g15
NtRp306
(dp307
g18
I1
sg19
I12
sg20
I68
sg21
I0
sg22
I2
sg23
I4
sg24
I2
sbssg25
S'\xefO\xf7\x89Z\x12\xab\xd5\xcc\xf99\x0e\xe0\x14\x93m'
p308
ssS'classes_daos'
p309
(dp310
g6
(dp311
g8
S'classes_daos.html'
p312
sg10
S'classes.daos'
p313
sg12
g13
(g14
g15
NtRp314
(dp315
g18
I1
sg19
I0
sg20
I50
sg21
I0
sg22
I0
sg23
I0
sg24
I0
sbssg25
S'\x13\xa5e\x85`\xfc\xd0t:\x8f\\(\x06\\\x8cp'
p316
ssS'commons_exception_mapper_errors'
p317
(dp318
g6
(dp319
g8
S'commons_exception_mapper_errors.html'
p320
sg10
S'commons.exception_mapper.errors'
p321
sg12
g13
(g14
g15
NtRp322
(dp323
g18
I1
sg19
I0
sg20
I0
sg21
I0
sg22
I0
sg23
I0
sg24
I0
sbssg25
S'\x98 \x067.\x85\xed_\xac\xf4\xaa\x81k&i\xc5'
p324
ssS'commons_logger'
p325
(dp326
g6
(dp327
g121
S'commons_logger.html'
p328
sg123
S'commons.logger'
p329
sg125
g13
(g14
g15
NtRp330
(dp331
g18
I1
sg19
I0
sg20
I19
sg21
I0
sg22
I0
sg23
I0
sg24
I0
sbssg25
S'\xa1t\xb5\x16\xcap\x18\x19\xd3\x0c\xc8\xa2R\x11x0'
p332
ssS'commons'
p333
(dp334
g6
(dp335
g8
S'commons.html'
p336
sg10
g333
sg12
g13
(g14
g15
NtRp337
(dp338
g18
I1
sg19
I0
sg20
I2
sg21
I0
sg22
I0
sg23
I2
sg24
I0
sbssg25
S']\x8c\x00\r?\xa1\xa1\x16[\x02\x029\x94\xb7\xfc\xd7'
p339
ssS'bindings_daos'
p340
(dp341
g6
(dp342
g30
S'bindings_daos.html'
p343
sg32
S'bindings.daos'
p344
sg34
g13
(g14
g15
NtRp345
(dp346
g18
I1
sg19
I0
sg20
I34
sg21
I0
sg22
I0
sg23
I0
sg24
I0
sbssg25
S'<\xdfbM\xd1\xeel\x0e\xfe\x95\xaf=\xa7-\xa2\x86'
p347
ssS'commons_exception_mapper_errors_errors'
p348
(dp349
g6
(dp350
g65
S'commons_exception_mapper_errors_errors.html'
p351
sg67
S'commons.exception_mapper.errors.errors'
p352
sg69
g13
(g14
g15
NtRp353
(dp354
g18
I1
sg19
I0
sg20
I2
sg21
I0
sg22
I0
sg23
I0
sg24
I0
sbssg25
S"\xda\xb3\xa0\xec\xc1D\xa7p\xb9?\xa1B\xf6\xe7\xbb'"
p355
ssS'bindings_views'
p356
(dp357
g6
(dp358
g30
S'bindings_views.html'
p359
sg32
S'bindings.views'
p360
sg34
g13
(g14
g15
NtRp361
(dp362
g18
I1
sg19
I0
sg20
I45
sg21
I0
sg22
I0
sg23
I0
sg24
I0
sbssg25
S'\x00\xe5\x14\xb2\xa5\xd1\x99\xe7s\x07"\x80\xdc\xc0\xfdw'
p363
ssS'commons_singleton'
p364
(dp365
g6
(dp366
g121
S'commons_singleton.html'
p367
sg123
S'commons.singleton'
p368
sg125
g13
(g14
g15
NtRp369
(dp370
g18
I1
sg19
I2
sg20
I6
sg21
I0
sg22
I0
sg23
I0
sg24
I0
sbssg25
S'\xc3,m\xf3\xc3\x0b\x9f\xa6M\xb0\xa1\xcd:\x87\x9c\r'
p371
ssS'commons_exceptions'
p372
(dp373
g6
(dp374
g30
S'commons_exceptions.html'
p375
sg32
S'commons.exceptions'
p376
sg34
g13
(g14
g15
NtRp377
(dp378
g18
I1
sg19
I8
sg20
I65
sg21
I0
sg22
I1
sg23
I2
sg24
I1
sbssg25
S'.\x82\xeb\x888.\xaa\x06<r\xb6\x95\xae\xae-\x89'
p379
sssS'version'
p380
S'3.6'
p381
sS'settings'
p382
S']\xfbw\xcb5\xd5l.\x92o=K\x92\x88\x96\xbd'
p383
sS'format'
p384
I1
s.